S'[[ 88  58 220 ... 224  15  91]\n [181 212 156 ... 251 208   2]\n [ 92 178 254 ... 192 134 115]\n ...\n [104 168  61 ...   8 196  42]\n [253 105 235 ... 243 118 112]\n [ 49  38  30 ...   8  91 143]]'
p1
.S'[[ 29 213  63 ...  58  13 119]\n [ 35 169 134 ...  92 248 142]\n [246 164 168 ...  64 190  74]\n ...\n [189  84 188 ... 121 204 114]\n [101 248 153 ...   0 203 242]\n [130  42 115 ... 128 103 173]]'
p1
.S'[[125 233 168 ...  48 110  66]\n [ 41 169 167 ...  92 250 142]\n [235 236 128 ...  92 206  78]\n ...\n [ 89  48  24 ...   0  10  67]\n [ 14 171 236 ... 244 143 203]\n [ 34 178 245 ... 136  71 181]]'
p1
.S'[[116  69 217 ... 242  70  32]\n [117 125 148 ... 121  66   6]\n [126 166 168 ... 166  30  66]\n ...\n [ 49  36 104 ... 162  86 224]\n [ 14 171 236 ... 244 143 203]\n [121 176  28 ... 128  74  18]]'
p1
.